target datalayout = "e-m:e-p270:32:32-p271:32:32-p272:64:64-i64:64-i128:128-f80:128-n8:16:32:64-S128"
target triple = "x86_64-pc-linux-gnu"

%struct.Syncpoint = type { i64, i64, i64 }

; Function Attrs: nounwind uwtable
define i32 @ff_nut_sp_pts_cmp(ptr noundef %0, ptr noundef %1) #0 {
  %3 = alloca ptr, align 8
  %4 = alloca ptr, align 8
  %5 = alloca ptr, align 8
  %6 = alloca ptr, align 8
  store ptr %0, ptr %3, align 8, !tbaa !47
  store ptr %1, ptr %4, align 8, !tbaa !47
  call void @llvm.lifetime.start.p0(i64 8, ptr %5) #4
  %7 = load ptr, ptr %3, align 8, !tbaa !47
  store ptr %7, ptr %5, align 8, !tbaa !48
  call void @llvm.lifetime.start.p0(i64 8, ptr %6) #4
  %8 = load ptr, ptr %4, align 8, !tbaa !47
  store ptr %8, ptr %6, align 8, !tbaa !48
  %9 = load ptr, ptr %5, align 8, !tbaa !48
  %10 = getelementptr inbounds nuw %struct.Syncpoint, ptr %9, i32 0, i32 2
  %11 = load i64, ptr %10, align 8, !tbaa !52
  %12 = load ptr, ptr %6, align 8, !tbaa !48
  %13 = getelementptr inbounds nuw %struct.Syncpoint, ptr %12, i32 0, i32 2
  %14 = load i64, ptr %13, align 8, !tbaa !52
  %15 = sub nsw i64 %11, %14
  %16 = ashr i64 %15, 32
  %17 = load ptr, ptr %6, align 8, !tbaa !48
  %18 = getelementptr inbounds nuw %struct.Syncpoint, ptr %17, i32 0, i32 2
  %19 = load i64, ptr %18, align 8, !tbaa !52
  %20 = load ptr, ptr %5, align 8, !tbaa !48
  %21 = getelementptr inbounds nuw %struct.Syncpoint, ptr %20, i32 0, i32 2
  %22 = load i64, ptr %21, align 8, !tbaa !52
  %23 = sub nsw i64 %19, %22
  %24 = ashr i64 %23, 32
  %25 = sub nsw i64 %16, %24
  %26 = trunc i64 %25 to i32
  call void @llvm.lifetime.end.p0(i64 8, ptr %6) #4
  call void @llvm.lifetime.end.p0(i64 8, ptr %5) #4
  ret i32 %26
}