; Function Attrs: mustprogress nofree norecurse nosync nounwind willreturn memory(argmem: read) uwtable
define i32 @ff_nut_sp_pts_cmp(ptr noundef readonly captures(none) %0, ptr noundef readonly captures(none) %1) local_unnamed_addr #3 {
  %3 = getelementptr inbounds nuw i8, ptr %0, i64 16
  %4 = load i64, ptr %3, align 8, !tbaa !44
  %5 = getelementptr inbounds nuw i8, ptr %1, i64 16
  %6 = load i64, ptr %5, align 8, !tbaa !44
  %7 = sub nsw i64 %4, %6
  %8 = lshr i64 %7, 32
  %9 = sub nsw i64 %6, %4
  %10 = lshr i64 %9, 32
  %11 = sub nsw i64 %8, %10
  %12 = trunc i64 %11 to i32
  ret i32 %12
}